Certificate:
    Data:
        Version: 3 (0x2)
        Serial Number: 1 (0x1)
        Signature Algorithm: sha256WithRSAEncryption
        Issuer: CN=devcert
        Validity
            Not Before: Oct 24 17:51:06 2023 GMT
            Not After : Jan 26 17:51:06 2026 GMT
        Subject: CN=localhost
        Subject Public Key Info:
            Public Key Algorithm: rsaEncryption
                RSA Public-Key: (2048 bit)
                Modulus:
                    00:c6:e6:62:15:ec:cb:81:4e:df:75:4c:b6:33:ad:
                    96:3d:d6:78:3d:53:54:10:4b:1e:f9:99:2c:58:b5:
                    61:1c:70:c9:ab:fb:bb:b4:09:9f:cc:71:ce:e0:c1:
                    cc:f1:4a:31:17:c1:36:40:75:32:e6:26:3d:70:23:
                    9d:45:bd:ad:b4:cc:a1:9a:5c:72:01:e8:90:82:ca:
                    1b:f3:34:46:ac:2b:69:5d:42:ca:b1:bb:cf:d5:17:
                    64:82:ef:08:0c:1e:cf:16:4a:df:6f:82:74:ad:35:
                    e9:07:f6:bc:48:38:72:ba:bd:c7:3d:42:0a:d0:e8:
                    6d:7d:49:01:2a:6b:48:8b:05:a8:61:06:78:c4:8a:
                    cd:dd:ff:ab:9e:24:9b:5a:e3:73:2d:ea:14:11:04:
                    08:b2:10:7c:b9:82:c5:e0:5c:ce:24:c0:b9:e9:55:
                    96:60:04:ea:dc:ea:bd:3a:3b:68:2c:00:0d:b9:95:
                    3b:ad:13:3d:bc:db:c3:d1:1a:4a:80:53:df:d6:39:
                    15:a0:9b:24:5e:f1:4b:5a:6e:99:22:99:66:34:39:
                    e8:0f:57:22:1e:16:ed:d1:b9:ed:f3:4e:d3:8e:31:
                    81:bf:37:31:58:97:e5:16:83:70:e8:91:33:fd:02:
                    c9:1b:ce:03:7e:93:9f:4f:29:d5:f5:8b:a2:46:8c:
                    a8:7f
                Exponent: 65537 (0x10001)
        X509v3 extensions:
            X509v3 Basic Constraints: critical
                CA:FALSE
            X509v3 Subject Key Identifier: 
                54:1F:F3:0B:21:80:7C:FF:6B:87:5C:46:E2:8E:40:0E:57:60:7D:EB
            X509v3 Authority Key Identifier: 
                keyid:E6:57:41:3F:E0:35:AB:35:45:45:03:EC:AE:2B:DF:00:EE:AC:64:17
                DirName:/CN=devcert
                serial:37:F2:D8:68:89:15:E8:44:B3:9C:C4:89:58:9C:19:30:7E:88:2B:8E

            X509v3 Key Usage: critical
                Digital Signature, Key Encipherment
            X509v3 Extended Key Usage: 
                TLS Web Server Authentication
            X509v3 Subject Alternative Name: 
                DNS:localhost, DNS:*.localhost
    Signature Algorithm: sha256WithRSAEncryption
         0e:81:fd:b3:3f:04:47:a6:58:49:9a:d1:bd:9c:e2:d3:5c:81:
         22:8d:66:fb:60:22:24:75:ff:af:67:bc:28:08:77:21:45:1f:
         d1:b2:54:7f:a1:e3:ed:3f:b5:7b:2c:6c:b2:70:f1:9c:11:db:
         71:e2:99:42:08:ab:c5:89:4e:e3:cd:4b:d9:23:82:cc:d5:68:
         f4:17:88:0e:70:21:74:42:4b:08:5b:13:53:ed:9b:8c:05:5f:
         19:d9:64:e9:d3:e4:1f:a5:78:04:ce:e8:31:85:ce:ad:db:ff:
         23:21:6e:c1:10:2e:a3:b5:0c:44:e6:1e:94:63:dc:c3:92:eb:
         78:4c:41:84:f3:b6:36:38:6e:eb:cb:4a:24:de:51:14:1b:69:
         36:5d:4f:d3:ed:04:0a:8d:7f:8c:b6:2b:b0:40:05:f6:6e:d3:
         e7:5e:7c:24:fe:9f:1e:ed:68:1d:c6:db:0e:7b:d5:ea:8e:91:
         4b:b2:bc:eb:a9:33:9d:c1:fc:2a:a6:11:50:d2:26:1d:63:ce:
         1f:95:7f:75:0e:6b:89:e4:53:a2:14:d0:7d:65:a1:54:0a:a2:
         3a:5f:50:f0:8e:c1:6b:82:2a:5e:47:81:f5:ec:d8:c5:6d:77:
         35:df:12:6f:3c:0c:7a:0b:88:74:08:ab:67:f8:52:fb:c7:be:
         6a:1c:01:c6
-----BEGIN CERTIFICATE-----
MIIDaTCCAlGgAwIBAgIBATANBgkqhkiG9w0BAQsFADASMRAwDgYDVQQDDAdkZXZj
ZXJ0MB4XDTIzMTAyNDE3NTEwNloXDTI2MDEyNjE3NTEwNlowFDESMBAGA1UEAwwJ
bG9jYWxob3N0MIIBIjANBgkqhkiG9w0BAQEFAAOCAQ8AMIIBCgKCAQEAxuZiFezL
gU7fdUy2M62WPdZ4PVNUEEse+ZksWLVhHHDJq/u7tAmfzHHO4MHM8UoxF8E2QHUy
5iY9cCOdRb2ttMyhmlxyAeiQgsob8zRGrCtpXULKsbvP1Rdkgu8IDB7PFkrfb4J0
rTXpB/a8SDhyur3HPUIK0OhtfUkBKmtIiwWoYQZ4xIrN3f+rniSbWuNzLeoUEQQI
shB8uYLF4FzOJMC56VWWYATq3Oq9OjtoLAANuZU7rRM9vNvD0RpKgFPf1jkVoJsk
XvFLWm6ZIplmNDnoD1ciHhbt0bnt807TjjGBvzcxWJflFoNw6JEz/QLJG84DfpOf
TynV9YuiRoyofwIDAQABo4HHMIHEMAwGA1UdEwEB/wQCMAAwHQYDVR0OBBYEFFQf
8wshgHz/a4dcRuKOQA5XYH3rME0GA1UdIwRGMESAFOZXQT/gNas1RUUD7K4r3wDu
rGQXoRakFDASMRAwDgYDVQQDDAdkZXZjZXJ0ghQ38thoiRXoRLOcxIlYnBkwfogr
jjAOBgNVHQ8BAf8EBAMCBaAwEwYDVR0lBAwwCgYIKwYBBQUHAwEwIQYDVR0RBBow
GIIJbG9jYWxob3N0ggsqLmxvY2FsaG9zdDANBgkqhkiG9w0BAQsFAAOCAQEADoH9
sz8ER6ZYSZrRvZzi01yBIo1m+2AiJHX/r2e8KAh3IUUf0bJUf6Hj7T+1eyxssnDx
nBHbceKZQgirxYlO481L2SOCzNVo9BeIDnAhdEJLCFsTU+2bjAVfGdlk6dPkH6V4
BM7oMYXOrdv/IyFuwRAuo7UMROYelGPcw5LreExBhPO2Njhu68tKJN5RFBtpNl1P
0+0ECo1/jLYrsEAF9m7T5158JP6fHu1oHcbbDnvV6o6RS7K866kzncH8KqYRUNIm
HWPOH5V/dQ5rieRTohTQfWWhVAqiOl9Q8I7Ba4IqXkeB9ezYxW13Nd8SbzwMeguI
dAirZ/hS+8e+ahwBxg==
-----END CERTIFICATE-----
