Certificate:
    Data:
        Version: 3 (0x2)
        Serial Number: 1 (0x1)
    Signature Algorithm: sha256WithRSAEncryption
        Issuer: CN=devcert
        Validity

            Not Before: Oct 24 22:12:46 2023 GMT
            Not After : Jan 26 22:12:46 2026 GMT

        Subject: CN=localhost
        Subject Public Key Info:
            Public Key Algorithm: rsaEncryption
                RSA Public-Key: (2048 bit)
                Modulus:

                    00:c8:68:d7:4a:d8:3e:1a:e8:5d:79:d9:4b:9e:43:
                    61:b1:4d:36:3d:58:97:e9:7a:3c:50:f1:e3:0c:ab:
                    8c:57:9b:29:b9:75:8a:e8:11:c5:49:37:7b:d9:81:
                    6c:63:13:6d:bf:54:d8:7e:c9:f4:61:c8:c9:65:9f:
                    9b:a2:ee:62:62:db:94:e5:c0:de:31:f5:37:3a:d4:
                    e1:f8:37:b5:6f:ef:41:70:3b:97:33:0c:fc:17:2a:
                    25:ea:74:7e:d1:e4:5b:80:cc:f4:e5:fe:1d:e8:52:
                    55:88:96:8d:37:cd:83:7c:e2:f9:f8:63:df:7b:0f:
                    f7:a5:93:d3:96:66:5e:87:8d:0d:c8:90:c3:6f:b1:
                    1d:e2:70:0f:f4:95:d1:57:34:1f:f0:bd:ec:bb:2f:
                    35:7c:30:72:7b:05:7b:45:82:87:a8:ab:9c:5a:ff:
                    a4:8a:a5:cf:3f:d1:da:1a:f8:9e:4c:d8:98:aa:d7:
                    d5:9e:45:68:9d:69:6a:3a:58:59:9f:51:e3:10:a6:
                    ca:26:a5:e1:e0:cc:08:84:6f:04:9d:59:de:80:e4:
                    eb:2f:a8:90:5d:c4:1b:96:02:3c:c4:54:a0:21:97:
                    37:69:06:72:80:b7:2c:bf:5b:d1:6f:5a:02:e7:39:
                    57:1d:76:cd:94:fe:0f:fd:5f:07:e9:02:2e:d5:c3:
                    f6:4d

                Exponent: 65537 (0x10001)
        X509v3 extensions:
            X509v3 Basic Constraints: critical
                CA:FALSE
            X509v3 Subject Key Identifier: 

                31:E9:D8:C1:67:67:20:4F:25:36:F7:3D:33:2E:0B:05:C9:D2:25:72
            X509v3 Authority Key Identifier: 
                keyid:A0:3A:0A:94:7C:0F:56:60:1A:75:0C:CD:F8:94:F1:B7:D0:D0:AF:03
                DirName:/CN=devcert
                serial:C6:40:13:65:F5:B3:06:04


            X509v3 Key Usage: critical
                Digital Signature, Key Encipherment
            X509v3 Extended Key Usage: 
                TLS Web Server Authentication
            X509v3 Subject Alternative Name: 
                DNS:localhost, DNS:*.localhost
    Signature Algorithm: sha256WithRSAEncryption

         5c:7e:8b:9b:b6:41:4c:47:96:bd:e4:9f:de:3d:47:4d:06:71:
         d4:7b:68:01:c3:7c:ad:e3:04:49:45:b9:a6:5c:1f:0e:d4:6c:
         00:b4:35:4a:a0:7f:dc:78:9f:20:2d:92:ca:17:4c:1d:2a:b3:
         f7:9f:1d:20:29:25:80:9e:71:e6:f2:4e:6e:71:5e:3c:c0:d3:
         6e:17:df:44:1d:a3:de:9e:f3:ca:6f:76:b2:5d:2e:3b:01:2e:
         60:1c:df:54:6f:ef:5a:53:49:62:b9:ec:20:c0:9a:9c:8b:b2:
         b7:ff:19:53:25:30:d8:ce:cf:65:09:db:1c:26:68:4f:0b:85:
         92:d2:4a:db:6f:88:2a:a7:da:85:f2:cf:49:aa:01:2d:cf:34:
         a1:58:6c:7d:d6:a4:85:83:4b:74:99:c9:d4:1e:80:f8:b1:1f:
         85:00:20:5f:99:e2:85:f7:62:e4:cc:45:c4:d2:17:3b:23:c7:
         70:92:1e:53:47:10:3e:e5:06:34:bb:57:74:ad:5f:7e:f2:f6:
         49:84:21:d7:7d:14:eb:ed:d2:ab:87:c3:04:4f:3c:0f:93:20:
         64:3a:62:1f:8e:80:3e:45:2f:64:4d:ed:52:73:1d:d7:7a:ab:
         2a:1b:02:34:eb:bc:91:93:3a:7d:ad:73:64:d0:64:02:e0:cb:
         17:c9:78:06
-----BEGIN CERTIFICATE-----
MIIDXjCCAkagAwIBAgIBATANBgkqhkiG9w0BAQsFADASMRAwDgYDVQQDDAdkZXZj
ZXJ0MB4XDTIzMTAyNDIyMTI0NloXDTI2MDEyNjIyMTI0NlowFDESMBAGA1UEAwwJ
bG9jYWxob3N0MIIBIjANBgkqhkiG9w0BAQEFAAOCAQ8AMIIBCgKCAQEAyGjXStg+
GuhdedlLnkNhsU02PViX6Xo8UPHjDKuMV5spuXWK6BHFSTd72YFsYxNtv1TYfsn0
YcjJZZ+bou5iYtuU5cDeMfU3OtTh+De1b+9BcDuXMwz8Fyol6nR+0eRbgMz05f4d
6FJViJaNN82DfOL5+GPfew/3pZPTlmZeh40NyJDDb7Ed4nAP9JXRVzQf8L3suy81
fDByewV7RYKHqKucWv+kiqXPP9HaGvieTNiYqtfVnkVonWlqOlhZn1HjEKbKJqXh
4MwIhG8EnVnegOTrL6iQXcQblgI8xFSgIZc3aQZygLcsv1vRb1oC5zlXHXbNlP4P
/V8H6QIu1cP2TQIDAQABo4G8MIG5MAwGA1UdEwEB/wQCMAAwHQYDVR0OBBYEFDHp
2MFnZyBPJTb3PTMuCwXJ0iVyMEIGA1UdIwQ7MDmAFKA6CpR8D1ZgGnUMzfiU8bfQ
0K8DoRakFDASMRAwDgYDVQQDDAdkZXZjZXJ0ggkAxkATZfWzBgQwDgYDVR0PAQH/
BAQDAgWgMBMGA1UdJQQMMAoGCCsGAQUFBwMBMCEGA1UdEQQaMBiCCWxvY2FsaG9z
dIILKi5sb2NhbGhvc3QwDQYJKoZIhvcNAQELBQADggEBAFx+i5u2QUxHlr3kn949
R00GcdR7aAHDfK3jBElFuaZcHw7UbAC0NUqgf9x4nyAtksoXTB0qs/efHSApJYCe
cebyTm5xXjzA024X30Qdo96e88pvdrJdLjsBLmAc31Rv71pTSWK57CDAmpyLsrf/
GVMlMNjOz2UJ2xwmaE8LhZLSSttviCqn2oXyz0mqAS3PNKFYbH3WpIWDS3SZydQe
gPixH4UAIF+Z4oX3YuTMRcTSFzsjx3CSHlNHED7lBjS7V3StX37y9kmEIdd9FOvt
0quHwwRPPA+TIGQ6Yh+OgD5FL2RN7VJzHdd6qyobAjTrvJGTOn2tc2TQZALgyxfJ
eAY=

-----END CERTIFICATE-----
