Certificate:
    Data:
        Version: 3 (0x2)
        Serial Number: 1 (0x1)
    Signature Algorithm: sha256WithRSAEncryption
    Signature Algorithm: sha256WithRSAEncryption
        Issuer: CN=devcert
        Validity
            Not Before: Oct 25 17:48:32 2023 GMT
            Not After : Jan 27 17:48:32 2026 GMT
            Not Before: Oct 25 17:48:32 2023 GMT
            Not After : Jan 27 17:48:32 2026 GMT
        Subject: CN=localhost
        Subject Public Key Info:
            Public Key Algorithm: rsaEncryption
                RSA Public-Key: (2048 bit)
                RSA Public-Key: (2048 bit)
                Modulus:
                    00:f2:e4:8b:61:a9:3e:a7:a6:49:ee:27:03:75:a3:
                    eb:5b:13:42:99:30:7b:5a:4e:04:8b:67:2e:73:6d:
                    2c:6e:9b:10:28:ad:5d:8e:d8:eb:00:d1:6d:cf:be:
                    bb:7b:ca:76:8a:93:47:57:51:b3:05:bc:12:52:0f:
                    ab:3e:d4:48:b3:43:5f:d0:30:18:da:cf:af:4c:88:
                    74:1a:97:ed:46:4b:0e:41:69:cd:2f:e1:e4:ef:80:
                    de:69:0b:2e:7a:53:17:78:6e:5e:26:d9:47:9d:a5:
                    08:ca:de:82:dd:57:f7:50:17:46:6e:46:e4:1d:5c:
                    f5:27:f3:2d:10:89:3d:3f:47:0b:3f:11:4d:b7:3d:
                    ed:2e:88:84:89:fe:1d:27:4f:1e:2a:fd:1b:c2:2f:
                    31:cf:93:cf:64:b9:de:5d:64:7f:69:62:ed:c7:e0:
                    11:63:7d:a4:c2:a0:3c:bb:9f:9b:fa:c6:8c:45:4f:
                    da:0d:b0:8b:fc:31:a3:13:0b:b2:a9:40:71:26:fe:
                    73:05:6d:23:4d:52:28:d0:80:d3:2f:78:3b:ca:ff:
                    f8:7e:e7:d1:28:dc:88:b9:df:13:5d:35:d9:30:75:
                    69:25:f1:00:0d:f4:eb:ca:be:8e:97:05:f2:ce:1a:
                    18:84:e5:4d:4a:81:63:6e:65:61:48:fd:4a:09:a2:
                    bc:f5
                    00:f2:e4:8b:61:a9:3e:a7:a6:49:ee:27:03:75:a3:
                    eb:5b:13:42:99:30:7b:5a:4e:04:8b:67:2e:73:6d:
                    2c:6e:9b:10:28:ad:5d:8e:d8:eb:00:d1:6d:cf:be:
                    bb:7b:ca:76:8a:93:47:57:51:b3:05:bc:12:52:0f:
                    ab:3e:d4:48:b3:43:5f:d0:30:18:da:cf:af:4c:88:
                    74:1a:97:ed:46:4b:0e:41:69:cd:2f:e1:e4:ef:80:
                    de:69:0b:2e:7a:53:17:78:6e:5e:26:d9:47:9d:a5:
                    08:ca:de:82:dd:57:f7:50:17:46:6e:46:e4:1d:5c:
                    f5:27:f3:2d:10:89:3d:3f:47:0b:3f:11:4d:b7:3d:
                    ed:2e:88:84:89:fe:1d:27:4f:1e:2a:fd:1b:c2:2f:
                    31:cf:93:cf:64:b9:de:5d:64:7f:69:62:ed:c7:e0:
                    11:63:7d:a4:c2:a0:3c:bb:9f:9b:fa:c6:8c:45:4f:
                    da:0d:b0:8b:fc:31:a3:13:0b:b2:a9:40:71:26:fe:
                    73:05:6d:23:4d:52:28:d0:80:d3:2f:78:3b:ca:ff:
                    f8:7e:e7:d1:28:dc:88:b9:df:13:5d:35:d9:30:75:
                    69:25:f1:00:0d:f4:eb:ca:be:8e:97:05:f2:ce:1a:
                    18:84:e5:4d:4a:81:63:6e:65:61:48:fd:4a:09:a2:
                    bc:f5
                Exponent: 65537 (0x10001)
        X509v3 extensions:
            X509v3 Basic Constraints: critical
                CA:FALSE
            X509v3 Subject Key Identifier: 
                F6:E9:3D:71:8F:81:92:4E:7E:05:76:39:7F:97:44:98:CA:45:9B:17
            X509v3 Authority Key Identifier: 
                keyid:20:35:9C:1D:7A:20:78:CD:BF:AD:2B:74:2C:13:9E:7F:DE:94:8F:C7
                DirName:/CN=devcert
                serial:85:31:45:ED:7B:DA:0B:E5

            X509v3 Key Usage: critical
                Digital Signature, Key Encipherment
            X509v3 Extended Key Usage: 
                TLS Web Server Authentication
            X509v3 Subject Alternative Name: 
                DNS:localhost, DNS:*.localhost
    Signature Algorithm: sha256WithRSAEncryption
         7e:25:61:06:bc:a0:04:f6:86:8a:95:ab:8e:02:b5:fe:6d:8d:
         a9:cb:11:6c:21:78:ca:b3:98:d8:b2:e3:8c:8e:cc:75:97:f1:
         ea:2b:76:78:ee:ee:ad:75:b3:0b:fd:f8:62:8c:5a:19:99:4c:
         74:01:29:c5:ba:f7:65:7c:f6:ed:4a:47:64:0f:ee:1f:58:4f:
         ac:09:85:0d:45:94:63:93:e2:de:c3:e0:f7:e7:e8:48:2a:4c:
         02:cf:27:bb:ec:d0:2d:f1:4f:c1:82:a7:8d:90:f6:94:fe:f7:
         9f:12:90:af:69:fb:27:c5:83:e6:9d:a3:b2:df:21:90:9f:5e:
         c2:35:de:39:5d:cd:b8:81:41:f5:e5:38:12:75:23:0f:a7:ae:
         71:ef:4a:12:38:ec:2f:a7:7c:f1:8c:45:32:5c:ca:25:4d:2f:
         ac:6e:7c:6b:54:de:3e:8f:16:74:5c:b2:4a:98:a1:88:81:33:
         2b:18:aa:0a:50:eb:49:fd:90:7d:03:01:fe:53:8d:33:d0:13:
         08:0a:e3:f0:e3:47:67:27:96:ee:0c:9c:13:ba:36:be:d1:ec:
         31:e2:15:82:e5:b2:e0:80:ac:2e:87:a5:73:6f:18:8e:39:85:
         67:62:aa:1c:98:9f:1c:6a:58:66:ae:79:8a:50:6b:f1:e8:83:
         2f:83:af:14
-----BEGIN CERTIFICATE-----
MIIDXjCCAkagAwIBAgIBATANBgkqhkiG9w0BAQsFADASMRAwDgYDVQQDDAdkZXZj
ZXJ0MB4XDTIzMTAyNTE3NDgzMloXDTI2MDEyNzE3NDgzMlowFDESMBAGA1UEAwwJ
bG9jYWxob3N0MIIBIjANBgkqhkiG9w0BAQEFAAOCAQ8AMIIBCgKCAQEA8uSLYak+
p6ZJ7icDdaPrWxNCmTB7Wk4Ei2cuc20sbpsQKK1djtjrANFtz767e8p2ipNHV1Gz
BbwSUg+rPtRIs0Nf0DAY2s+vTIh0GpftRksOQWnNL+Hk74DeaQsuelMXeG5eJtlH
naUIyt6C3Vf3UBdGbkbkHVz1J/MtEIk9P0cLPxFNtz3tLoiEif4dJ08eKv0bwi8x
z5PPZLneXWR/aWLtx+ARY32kwqA8u5+b+saMRU/aDbCL/DGjEwuyqUBxJv5zBW0j
TVIo0IDTL3g7yv/4fufRKNyIud8TXTXZMHVpJfEADfTryr6OlwXyzhoYhOVNSoFj
bmVhSP1KCaK89QIDAQABo4G8MIG5MAwGA1UdEwEB/wQCMAAwHQYDVR0OBBYEFPbp
PXGPgZJOfgV2OX+XRJjKRZsXMEIGA1UdIwQ7MDmAFCA1nB16IHjNv60rdCwTnn/e
lI/HoRakFDASMRAwDgYDVQQDDAdkZXZjZXJ0ggkAhTFF7XvaC+UwDgYDVR0PAQH/
BAQDAgWgMBMGA1UdJQQMMAoGCCsGAQUFBwMBMCEGA1UdEQQaMBiCCWxvY2FsaG9z
dIILKi5sb2NhbGhvc3QwDQYJKoZIhvcNAQELBQADggEBAH4lYQa8oAT2hoqVq44C
tf5tjanLEWwheMqzmNiy44yOzHWX8eordnju7q11swv9+GKMWhmZTHQBKcW692V8
9u1KR2QP7h9YT6wJhQ1FlGOT4t7D4Pfn6EgqTALPJ7vs0C3xT8GCp42Q9pT+958S
kK9p+yfFg+ado7LfIZCfXsI13jldzbiBQfXlOBJ1Iw+nrnHvShI47C+nfPGMRTJc
yiVNL6xufGtU3j6PFnRcskqYoYiBMysYqgpQ60n9kH0DAf5TjTPQEwgK4/DjR2cn
lu4MnBO6Nr7R7DHiFYLlsuCArC6HpXNvGI45hWdiqhyYnxxqWGaueYpQa/Hogy+D
rxQ=
-----END CERTIFICATE-----