Certificate:
    Data:
        Version: 3 (0x2)
        Serial Number: 1 (0x1)
        Signature Algorithm: sha256WithRSAEncryption
        Issuer: CN=devcert
        Validity
            Not Before: Oct 24 22:20:22 2023 GMT
            Not After : Jan 26 22:20:22 2026 GMT
        Subject: CN=localhost
        Subject Public Key Info:
            Public Key Algorithm: rsaEncryption
                Public-Key: (2048 bit)
                Modulus:
                    00:a7:ce:6b:a4:9d:70:04:d4:3b:15:2f:d9:a3:20:
                    30:de:8c:d6:f7:38:70:df:3f:13:dc:00:ca:63:ca:
                    f5:cf:57:e7:6a:69:e1:b9:aa:1a:c7:0b:5a:90:50:
                    72:a2:36:ff:ec:00:b1:12:c7:90:a4:04:e1:2e:bb:
                    7b:d6:6b:34:df:43:47:57:71:a6:61:8d:c0:6f:3a:
                    5b:6b:97:72:6e:88:3e:14:ae:b4:67:37:69:fc:5b:
                    47:ea:28:8e:d3:b7:60:22:01:e4:73:2c:f0:f3:6e:
                    87:73:bb:2f:44:e1:70:5c:f3:13:34:50:32:64:4f:
                    fb:c2:54:4c:5e:b1:fa:d8:aa:af:5d:a8:f1:37:80:
                    a0:61:9f:e9:6d:ee:9d:d4:9f:65:fd:9e:67:26:90:
                    4f:bc:c3:c8:13:63:ea:4a:f7:72:dc:4e:bf:c3:ed:
                    e5:ee:5f:61:22:c2:91:de:c4:ab:61:ce:07:7f:b8:
                    58:76:9f:3d:0d:e5:e0:82:ba:d4:90:61:e0:ac:77:
                    4e:6b:a7:8f:18:10:a4:3a:cf:52:53:b7:14:fc:07:
                    b1:aa:99:44:3c:e0:58:6d:68:50:db:09:22:58:72:
                    7f:ff:7f:62:16:9a:94:2a:79:f9:96:48:a5:88:2c:
                    ce:cb:e7:c9:a4:b3:a7:46:ac:39:ce:5d:c9:57:31:
                    c1:f5
                Exponent: 65537 (0x10001)
        X509v3 extensions:
            X509v3 Basic Constraints: critical
                CA:FALSE
            X509v3 Subject Key Identifier: 
                32:8F:7E:D3:BA:62:6B:E6:1B:7F:59:DF:84:AB:02:13:DB:A2:D0:C9
            X509v3 Authority Key Identifier: 
                keyid:57:5B:8B:B6:C5:2D:2A:DF:7F:BD:C2:CC:DC:08:03:29:A1:BD:8E:B2
                DirName:/CN=devcert
                serial:3F:0E:24:1F:0B:B7:B5:42:71:E7:E7:FD:72:65:F2:1C:70:29:C2:5B
            X509v3 Key Usage: critical
                Digital Signature, Key Encipherment
            X509v3 Extended Key Usage: 
                TLS Web Server Authentication
            X509v3 Subject Alternative Name: 
                DNS:localhost, DNS:*.localhost
    Signature Algorithm: sha256WithRSAEncryption
    Signature Value:
        39:2d:2c:22:73:8f:50:a6:91:40:dc:a3:b0:33:74:69:a4:7f:
        4d:99:a5:09:58:f6:7a:e6:42:e0:85:a4:8d:cc:65:07:57:62:
        18:c1:d8:aa:1c:9e:f7:2b:5a:a6:a7:4d:c2:2b:cf:e4:b5:08:
        6c:ef:fd:20:85:25:04:c3:9e:12:74:04:0b:2e:22:d4:21:47:
        3f:09:3b:b6:77:0d:56:c7:94:a1:f8:3a:16:5a:cf:bf:76:57:
        f4:67:75:60:64:7d:f2:57:24:e1:1d:36:c0:64:f8:96:9f:0a:
        77:3f:69:cd:ea:12:2d:42:00:ea:51:08:6e:54:5f:f7:47:9f:
        3a:0d:37:ad:5c:a0:b6:99:d1:6f:0a:e5:1c:bb:fe:b2:07:f0:
        77:8f:92:62:ec:5d:17:24:05:c8:eb:14:9b:f1:36:ee:7b:c7:
        87:db:39:69:68:b2:17:63:d5:b6:02:19:04:09:6b:aa:16:00:
        11:f0:a9:b7:60:59:94:db:70:7f:b7:8d:a2:86:b2:a3:5d:23:
        0f:0a:b8:4e:e3:1c:b2:84:23:e3:11:3d:bb:85:61:e8:34:43:
        b3:79:8a:d7:65:f9:c3:8b:66:f5:1a:29:ff:55:9a:c5:a8:e7:
        8d:54:44:ed:b0:7d:16:4c:e2:62:43:cb:1b:a6:e6:ba:19:51:
        bb:17:fa:f2
-----BEGIN CERTIFICATE-----
MIIDaTCCAlGgAwIBAgIBATANBgkqhkiG9w0BAQsFADASMRAwDgYDVQQDDAdkZXZj
ZXJ0MB4XDTIzMTAyNDIyMjAyMloXDTI2MDEyNjIyMjAyMlowFDESMBAGA1UEAwwJ
bG9jYWxob3N0MIIBIjANBgkqhkiG9w0BAQEFAAOCAQ8AMIIBCgKCAQEAp85rpJ1w
BNQ7FS/ZoyAw3ozW9zhw3z8T3ADKY8r1z1fnamnhuaoaxwtakFByojb/7ACxEseQ
pAThLrt71ms030NHV3GmYY3Abzpba5dybog+FK60Zzdp/FtH6iiO07dgIgHkcyzw
826Hc7svROFwXPMTNFAyZE/7wlRMXrH62KqvXajxN4CgYZ/pbe6d1J9l/Z5nJpBP
vMPIE2PqSvdy3E6/w+3l7l9hIsKR3sSrYc4Hf7hYdp89DeXggrrUkGHgrHdOa6eP
GBCkOs9SU7cU/AexqplEPOBYbWhQ2wkiWHJ//39iFpqUKnn5lkiliCzOy+fJpLOn
Rqw5zl3JVzHB9QIDAQABo4HHMIHEMAwGA1UdEwEB/wQCMAAwHQYDVR0OBBYEFDKP
ftO6YmvmG39Z34SrAhPbotDJME0GA1UdIwRGMESAFFdbi7bFLSrff73CzNwIAymh
vY6yoRakFDASMRAwDgYDVQQDDAdkZXZjZXJ0ghQ/DiQfC7e1QnHn5/1yZfIccCnC
WzAOBgNVHQ8BAf8EBAMCBaAwEwYDVR0lBAwwCgYIKwYBBQUHAwEwIQYDVR0RBBow
GIIJbG9jYWxob3N0ggsqLmxvY2FsaG9zdDANBgkqhkiG9w0BAQsFAAOCAQEAOS0s
InOPUKaRQNyjsDN0aaR/TZmlCVj2euZC4IWkjcxlB1diGMHYqhye9ytapqdNwivP
5LUIbO/9IIUlBMOeEnQECy4i1CFHPwk7tncNVseUofg6FlrPv3ZX9Gd1YGR98lck
4R02wGT4lp8Kdz9pzeoSLUIA6lEIblRf90efOg03rVygtpnRbwrlHLv+sgfwd4+S
YuxdFyQFyOsUm/E27nvHh9s5aWiyF2PVtgIZBAlrqhYAEfCpt2BZlNtwf7eNooay
o10jDwq4TuMcsoQj4xE9u4Vh6DRDs3mK12X5w4tm9Rop/1WaxajnjVRE7bB9Fkzi
YkPLG6bmuhlRuxf68g==
-----END CERTIFICATE-----
