Certificate:
    Data:
        Version: 3 (0x2)
        Serial Number: 1 (0x1)
    Signature Algorithm: sha256WithRSAEncryption
        Issuer: CN=devcert
        Validity
<<<<<<< HEAD
            Not Before: Oct 26 18:06:29 2023 GMT
            Not After : Jan 28 18:06:29 2026 GMT
=======
            Not Before: Oct 25 17:48:32 2023 GMT
            Not After : Jan 27 17:48:32 2026 GMT
>>>>>>> c37fdeef8ee7ab891b05ec813bd37411cb195cec
        Subject: CN=localhost
        Subject Public Key Info:
            Public Key Algorithm: rsaEncryption
                RSA Public-Key: (2048 bit)
                Modulus:
<<<<<<< HEAD
                    00:9b:6c:dc:71:e7:85:0e:15:2b:33:97:02:0d:af:
                    62:c6:62:29:de:bb:14:f6:ff:ba:db:37:f1:f4:ca:
                    94:41:ca:8f:bb:56:a0:4d:42:38:40:cc:c3:07:04:
                    26:9b:56:a5:10:3c:d7:41:b5:d3:bd:36:19:ff:30:
                    dc:90:49:9f:f6:8a:72:2c:64:50:09:df:0b:67:2f:
                    81:00:52:20:46:1e:cb:68:87:29:5b:b2:e0:2e:89:
                    14:01:f2:5d:be:5a:c6:10:3d:02:af:56:9c:84:53:
                    cc:f3:71:31:49:b5:d4:c9:07:ec:6b:aa:e0:0e:40:
                    39:1d:3a:94:85:c5:fe:c7:2b:1b:70:53:86:54:f9:
                    02:3f:98:f2:37:45:71:72:83:96:fb:51:96:bf:94:
                    30:51:4d:3b:05:40:f7:ba:1e:c4:3a:74:86:30:70:
                    38:56:6e:2f:1b:11:74:bc:65:ff:74:62:8c:24:3c:
                    f5:ef:d8:69:09:f3:ec:2e:71:11:74:39:96:82:63:
                    db:a3:18:94:0f:68:3c:2e:5c:16:84:e1:5f:5e:90:
                    68:b4:11:89:54:d2:24:de:36:53:ee:f1:8b:e7:09:
                    b4:df:19:da:f4:fc:88:f6:f2:69:da:8b:8c:5d:a7:
                    2e:64:87:7e:b2:d3:75:7f:da:c9:4b:23:b3:a3:87:
                    3d:ef
=======
                    00:f2:e4:8b:61:a9:3e:a7:a6:49:ee:27:03:75:a3:
                    eb:5b:13:42:99:30:7b:5a:4e:04:8b:67:2e:73:6d:
                    2c:6e:9b:10:28:ad:5d:8e:d8:eb:00:d1:6d:cf:be:
                    bb:7b:ca:76:8a:93:47:57:51:b3:05:bc:12:52:0f:
                    ab:3e:d4:48:b3:43:5f:d0:30:18:da:cf:af:4c:88:
                    74:1a:97:ed:46:4b:0e:41:69:cd:2f:e1:e4:ef:80:
                    de:69:0b:2e:7a:53:17:78:6e:5e:26:d9:47:9d:a5:
                    08:ca:de:82:dd:57:f7:50:17:46:6e:46:e4:1d:5c:
                    f5:27:f3:2d:10:89:3d:3f:47:0b:3f:11:4d:b7:3d:
                    ed:2e:88:84:89:fe:1d:27:4f:1e:2a:fd:1b:c2:2f:
                    31:cf:93:cf:64:b9:de:5d:64:7f:69:62:ed:c7:e0:
                    11:63:7d:a4:c2:a0:3c:bb:9f:9b:fa:c6:8c:45:4f:
                    da:0d:b0:8b:fc:31:a3:13:0b:b2:a9:40:71:26:fe:
                    73:05:6d:23:4d:52:28:d0:80:d3:2f:78:3b:ca:ff:
                    f8:7e:e7:d1:28:dc:88:b9:df:13:5d:35:d9:30:75:
                    69:25:f1:00:0d:f4:eb:ca:be:8e:97:05:f2:ce:1a:
                    18:84:e5:4d:4a:81:63:6e:65:61:48:fd:4a:09:a2:
                    bc:f5
>>>>>>> c37fdeef8ee7ab891b05ec813bd37411cb195cec
                Exponent: 65537 (0x10001)
        X509v3 extensions:
            X509v3 Basic Constraints: critical
                CA:FALSE
            X509v3 Subject Key Identifier: 
<<<<<<< HEAD
                58:8D:C1:79:FE:4A:76:63:88:62:06:F7:00:CA:19:15:8B:DC:CF:96
            X509v3 Authority Key Identifier: 
                keyid:87:8A:5D:28:EF:F5:54:1D:1E:A7:31:20:A1:DA:C1:DA:3D:FC:BC:11
                DirName:/CN=devcert
                serial:69:3F:BC:FC:7B:E7:52:B3:95:7F:BD:F7:DE:25:BA:AE:1C:06:11:63
=======
                F6:E9:3D:71:8F:81:92:4E:7E:05:76:39:7F:97:44:98:CA:45:9B:17
            X509v3 Authority Key Identifier: 
                keyid:20:35:9C:1D:7A:20:78:CD:BF:AD:2B:74:2C:13:9E:7F:DE:94:8F:C7
                DirName:/CN=devcert
                serial:85:31:45:ED:7B:DA:0B:E5

>>>>>>> c37fdeef8ee7ab891b05ec813bd37411cb195cec
            X509v3 Key Usage: critical
                Digital Signature, Key Encipherment
            X509v3 Extended Key Usage: 
                TLS Web Server Authentication
            X509v3 Subject Alternative Name: 
                DNS:localhost, DNS:*.localhost
    Signature Algorithm: sha256WithRSAEncryption
<<<<<<< HEAD
    Signature Value:
        b7:57:be:48:d9:ee:51:59:c0:21:cd:10:12:88:a0:05:ef:c2:
        4c:c7:bd:16:4d:87:77:5a:9c:00:cf:7c:b2:03:25:bf:08:f6:
        ed:3b:b0:29:d4:83:2c:a4:19:0a:f8:94:e4:ff:bf:3e:82:09:
        c4:be:2e:a1:1f:d6:69:50:66:f8:1b:fb:61:e7:8d:cd:5f:76:
        16:f2:46:5b:5e:27:4d:46:8b:22:63:26:35:52:0c:f6:49:f2:
        13:4d:4c:f9:44:e8:dc:eb:5d:7a:7d:67:67:51:ff:b0:f8:4d:
        ad:6f:b4:07:f0:12:1e:23:bb:f7:17:a4:ce:c8:59:dd:a9:45:
        56:1d:9f:db:ce:0b:e3:fb:e7:17:67:69:41:da:b8:ce:6c:04:
        a1:d8:3a:1a:47:e9:84:90:5b:a8:d9:8e:f4:3b:19:50:a9:a3:
        e4:51:51:41:20:9a:62:64:af:9a:49:ca:f8:9e:04:33:c4:28:
        70:38:51:62:51:18:02:f7:6e:89:5b:b9:07:ba:8d:5c:00:0a:
        71:d0:e0:cb:f2:cc:dd:47:fb:4b:81:fc:c5:e6:e2:c4:60:39:
        be:f9:05:c1:a1:ee:d7:15:1a:c2:24:e0:ae:d3:43:56:81:6e:
        21:dd:dc:9d:2d:6b:a7:3d:a0:ba:ab:1b:1e:74:73:40:8a:86:
        82:b2:56:29
-----BEGIN CERTIFICATE-----
MIIDaTCCAlGgAwIBAgIBATANBgkqhkiG9w0BAQsFADASMRAwDgYDVQQDDAdkZXZj
ZXJ0MB4XDTIzMTAyNjE4MDYyOVoXDTI2MDEyODE4MDYyOVowFDESMBAGA1UEAwwJ
bG9jYWxob3N0MIIBIjANBgkqhkiG9w0BAQEFAAOCAQ8AMIIBCgKCAQEAm2zcceeF
DhUrM5cCDa9ixmIp3rsU9v+62zfx9MqUQcqPu1agTUI4QMzDBwQmm1alEDzXQbXT
vTYZ/zDckEmf9opyLGRQCd8LZy+BAFIgRh7LaIcpW7LgLokUAfJdvlrGED0Cr1ac
hFPM83ExSbXUyQfsa6rgDkA5HTqUhcX+xysbcFOGVPkCP5jyN0VxcoOW+1GWv5Qw
UU07BUD3uh7EOnSGMHA4Vm4vGxF0vGX/dGKMJDz179hpCfPsLnERdDmWgmPboxiU
D2g8LlwWhOFfXpBotBGJVNIk3jZT7vGL5wm03xna9PyI9vJp2ouMXacuZId+stN1
f9rJSyOzo4c97wIDAQABo4HHMIHEMAwGA1UdEwEB/wQCMAAwHQYDVR0OBBYEFFiN
wXn+SnZjiGIG9wDKGRWL3M+WME0GA1UdIwRGMESAFIeKXSjv9VQdHqcxIKHawdo9
/LwRoRakFDASMRAwDgYDVQQDDAdkZXZjZXJ0ghRpP7z8e+dSs5V/vffeJbquHAYR
YzAOBgNVHQ8BAf8EBAMCBaAwEwYDVR0lBAwwCgYIKwYBBQUHAwEwIQYDVR0RBBow
GIIJbG9jYWxob3N0ggsqLmxvY2FsaG9zdDANBgkqhkiG9w0BAQsFAAOCAQEAt1e+
SNnuUVnAIc0QEoigBe/CTMe9Fk2Hd1qcAM98sgMlvwj27TuwKdSDLKQZCviU5P+/
PoIJxL4uoR/WaVBm+Bv7YeeNzV92FvJGW14nTUaLImMmNVIM9knyE01M+UTo3Otd
en1nZ1H/sPhNrW+0B/ASHiO79xekzshZ3alFVh2f284L4/vnF2dpQdq4zmwEodg6
GkfphJBbqNmO9DsZUKmj5FFRQSCaYmSvmknK+J4EM8QocDhRYlEYAvduiVu5B7qN
XAAKcdDgy/LM3Uf7S4H8xebixGA5vvkFwaHu1xUawiTgrtNDVoFuId3cnS1rpz2g
uqsbHnRzQIqGgrJWKQ==
=======
         7e:25:61:06:bc:a0:04:f6:86:8a:95:ab:8e:02:b5:fe:6d:8d:
         a9:cb:11:6c:21:78:ca:b3:98:d8:b2:e3:8c:8e:cc:75:97:f1:
         ea:2b:76:78:ee:ee:ad:75:b3:0b:fd:f8:62:8c:5a:19:99:4c:
         74:01:29:c5:ba:f7:65:7c:f6:ed:4a:47:64:0f:ee:1f:58:4f:
         ac:09:85:0d:45:94:63:93:e2:de:c3:e0:f7:e7:e8:48:2a:4c:
         02:cf:27:bb:ec:d0:2d:f1:4f:c1:82:a7:8d:90:f6:94:fe:f7:
         9f:12:90:af:69:fb:27:c5:83:e6:9d:a3:b2:df:21:90:9f:5e:
         c2:35:de:39:5d:cd:b8:81:41:f5:e5:38:12:75:23:0f:a7:ae:
         71:ef:4a:12:38:ec:2f:a7:7c:f1:8c:45:32:5c:ca:25:4d:2f:
         ac:6e:7c:6b:54:de:3e:8f:16:74:5c:b2:4a:98:a1:88:81:33:
         2b:18:aa:0a:50:eb:49:fd:90:7d:03:01:fe:53:8d:33:d0:13:
         08:0a:e3:f0:e3:47:67:27:96:ee:0c:9c:13:ba:36:be:d1:ec:
         31:e2:15:82:e5:b2:e0:80:ac:2e:87:a5:73:6f:18:8e:39:85:
         67:62:aa:1c:98:9f:1c:6a:58:66:ae:79:8a:50:6b:f1:e8:83:
         2f:83:af:14
-----BEGIN CERTIFICATE-----
MIIDXjCCAkagAwIBAgIBATANBgkqhkiG9w0BAQsFADASMRAwDgYDVQQDDAdkZXZj
ZXJ0MB4XDTIzMTAyNTE3NDgzMloXDTI2MDEyNzE3NDgzMlowFDESMBAGA1UEAwwJ
bG9jYWxob3N0MIIBIjANBgkqhkiG9w0BAQEFAAOCAQ8AMIIBCgKCAQEA8uSLYak+
p6ZJ7icDdaPrWxNCmTB7Wk4Ei2cuc20sbpsQKK1djtjrANFtz767e8p2ipNHV1Gz
BbwSUg+rPtRIs0Nf0DAY2s+vTIh0GpftRksOQWnNL+Hk74DeaQsuelMXeG5eJtlH
naUIyt6C3Vf3UBdGbkbkHVz1J/MtEIk9P0cLPxFNtz3tLoiEif4dJ08eKv0bwi8x
z5PPZLneXWR/aWLtx+ARY32kwqA8u5+b+saMRU/aDbCL/DGjEwuyqUBxJv5zBW0j
TVIo0IDTL3g7yv/4fufRKNyIud8TXTXZMHVpJfEADfTryr6OlwXyzhoYhOVNSoFj
bmVhSP1KCaK89QIDAQABo4G8MIG5MAwGA1UdEwEB/wQCMAAwHQYDVR0OBBYEFPbp
PXGPgZJOfgV2OX+XRJjKRZsXMEIGA1UdIwQ7MDmAFCA1nB16IHjNv60rdCwTnn/e
lI/HoRakFDASMRAwDgYDVQQDDAdkZXZjZXJ0ggkAhTFF7XvaC+UwDgYDVR0PAQH/
BAQDAgWgMBMGA1UdJQQMMAoGCCsGAQUFBwMBMCEGA1UdEQQaMBiCCWxvY2FsaG9z
dIILKi5sb2NhbGhvc3QwDQYJKoZIhvcNAQELBQADggEBAH4lYQa8oAT2hoqVq44C
tf5tjanLEWwheMqzmNiy44yOzHWX8eordnju7q11swv9+GKMWhmZTHQBKcW692V8
9u1KR2QP7h9YT6wJhQ1FlGOT4t7D4Pfn6EgqTALPJ7vs0C3xT8GCp42Q9pT+958S
kK9p+yfFg+ado7LfIZCfXsI13jldzbiBQfXlOBJ1Iw+nrnHvShI47C+nfPGMRTJc
yiVNL6xufGtU3j6PFnRcskqYoYiBMysYqgpQ60n9kH0DAf5TjTPQEwgK4/DjR2cn
lu4MnBO6Nr7R7DHiFYLlsuCArC6HpXNvGI45hWdiqhyYnxxqWGaueYpQa/Hogy+D
rxQ=
>>>>>>> c37fdeef8ee7ab891b05ec813bd37411cb195cec
-----END CERTIFICATE-----
