Certificate:
    Data:
        Version: 3 (0x2)
        Serial Number: 1 (0x1)
        Signature Algorithm: sha256WithRSAEncryption
        Issuer: CN=devcert
        Validity
            Not Before: Oct 26 18:06:29 2023 GMT
            Not After : Jan 28 18:06:29 2026 GMT
        Subject: CN=localhost
        Subject Public Key Info:
            Public Key Algorithm: rsaEncryption
                Public-Key: (2048 bit)
                Modulus:
                    00:9b:6c:dc:71:e7:85:0e:15:2b:33:97:02:0d:af:
                    62:c6:62:29:de:bb:14:f6:ff:ba:db:37:f1:f4:ca:
                    94:41:ca:8f:bb:56:a0:4d:42:38:40:cc:c3:07:04:
                    26:9b:56:a5:10:3c:d7:41:b5:d3:bd:36:19:ff:30:
                    dc:90:49:9f:f6:8a:72:2c:64:50:09:df:0b:67:2f:
                    81:00:52:20:46:1e:cb:68:87:29:5b:b2:e0:2e:89:
                    14:01:f2:5d:be:5a:c6:10:3d:02:af:56:9c:84:53:
                    cc:f3:71:31:49:b5:d4:c9:07:ec:6b:aa:e0:0e:40:
                    39:1d:3a:94:85:c5:fe:c7:2b:1b:70:53:86:54:f9:
                    02:3f:98:f2:37:45:71:72:83:96:fb:51:96:bf:94:
                    30:51:4d:3b:05:40:f7:ba:1e:c4:3a:74:86:30:70:
                    38:56:6e:2f:1b:11:74:bc:65:ff:74:62:8c:24:3c:
                    f5:ef:d8:69:09:f3:ec:2e:71:11:74:39:96:82:63:
                    db:a3:18:94:0f:68:3c:2e:5c:16:84:e1:5f:5e:90:
                    68:b4:11:89:54:d2:24:de:36:53:ee:f1:8b:e7:09:
                    b4:df:19:da:f4:fc:88:f6:f2:69:da:8b:8c:5d:a7:
                    2e:64:87:7e:b2:d3:75:7f:da:c9:4b:23:b3:a3:87:
                    3d:ef
                Exponent: 65537 (0x10001)
        X509v3 extensions:
            X509v3 Basic Constraints: critical
                CA:FALSE
            X509v3 Subject Key Identifier: 
                58:8D:C1:79:FE:4A:76:63:88:62:06:F7:00:CA:19:15:8B:DC:CF:96
            X509v3 Authority Key Identifier: 
                keyid:87:8A:5D:28:EF:F5:54:1D:1E:A7:31:20:A1:DA:C1:DA:3D:FC:BC:11
                DirName:/CN=devcert
                serial:69:3F:BC:FC:7B:E7:52:B3:95:7F:BD:F7:DE:25:BA:AE:1C:06:11:63
            X509v3 Key Usage: critical
                Digital Signature, Key Encipherment
            X509v3 Extended Key Usage: 
                TLS Web Server Authentication
            X509v3 Subject Alternative Name: 
                DNS:localhost, DNS:*.localhost
    Signature Algorithm: sha256WithRSAEncryption
    Signature Value:
        b7:57:be:48:d9:ee:51:59:c0:21:cd:10:12:88:a0:05:ef:c2:
        4c:c7:bd:16:4d:87:77:5a:9c:00:cf:7c:b2:03:25:bf:08:f6:
        ed:3b:b0:29:d4:83:2c:a4:19:0a:f8:94:e4:ff:bf:3e:82:09:
        c4:be:2e:a1:1f:d6:69:50:66:f8:1b:fb:61:e7:8d:cd:5f:76:
        16:f2:46:5b:5e:27:4d:46:8b:22:63:26:35:52:0c:f6:49:f2:
        13:4d:4c:f9:44:e8:dc:eb:5d:7a:7d:67:67:51:ff:b0:f8:4d:
        ad:6f:b4:07:f0:12:1e:23:bb:f7:17:a4:ce:c8:59:dd:a9:45:
        56:1d:9f:db:ce:0b:e3:fb:e7:17:67:69:41:da:b8:ce:6c:04:
        a1:d8:3a:1a:47:e9:84:90:5b:a8:d9:8e:f4:3b:19:50:a9:a3:
        e4:51:51:41:20:9a:62:64:af:9a:49:ca:f8:9e:04:33:c4:28:
        70:38:51:62:51:18:02:f7:6e:89:5b:b9:07:ba:8d:5c:00:0a:
        71:d0:e0:cb:f2:cc:dd:47:fb:4b:81:fc:c5:e6:e2:c4:60:39:
        be:f9:05:c1:a1:ee:d7:15:1a:c2:24:e0:ae:d3:43:56:81:6e:
        21:dd:dc:9d:2d:6b:a7:3d:a0:ba:ab:1b:1e:74:73:40:8a:86:
        82:b2:56:29
-----BEGIN CERTIFICATE-----
MIIDaTCCAlGgAwIBAgIBATANBgkqhkiG9w0BAQsFADASMRAwDgYDVQQDDAdkZXZj
ZXJ0MB4XDTIzMTAyNjE4MDYyOVoXDTI2MDEyODE4MDYyOVowFDESMBAGA1UEAwwJ
bG9jYWxob3N0MIIBIjANBgkqhkiG9w0BAQEFAAOCAQ8AMIIBCgKCAQEAm2zcceeF
DhUrM5cCDa9ixmIp3rsU9v+62zfx9MqUQcqPu1agTUI4QMzDBwQmm1alEDzXQbXT
vTYZ/zDckEmf9opyLGRQCd8LZy+BAFIgRh7LaIcpW7LgLokUAfJdvlrGED0Cr1ac
hFPM83ExSbXUyQfsa6rgDkA5HTqUhcX+xysbcFOGVPkCP5jyN0VxcoOW+1GWv5Qw
UU07BUD3uh7EOnSGMHA4Vm4vGxF0vGX/dGKMJDz179hpCfPsLnERdDmWgmPboxiU
D2g8LlwWhOFfXpBotBGJVNIk3jZT7vGL5wm03xna9PyI9vJp2ouMXacuZId+stN1
f9rJSyOzo4c97wIDAQABo4HHMIHEMAwGA1UdEwEB/wQCMAAwHQYDVR0OBBYEFFiN
wXn+SnZjiGIG9wDKGRWL3M+WME0GA1UdIwRGMESAFIeKXSjv9VQdHqcxIKHawdo9
/LwRoRakFDASMRAwDgYDVQQDDAdkZXZjZXJ0ghRpP7z8e+dSs5V/vffeJbquHAYR
YzAOBgNVHQ8BAf8EBAMCBaAwEwYDVR0lBAwwCgYIKwYBBQUHAwEwIQYDVR0RBBow
GIIJbG9jYWxob3N0ggsqLmxvY2FsaG9zdDANBgkqhkiG9w0BAQsFAAOCAQEAt1e+
SNnuUVnAIc0QEoigBe/CTMe9Fk2Hd1qcAM98sgMlvwj27TuwKdSDLKQZCviU5P+/
PoIJxL4uoR/WaVBm+Bv7YeeNzV92FvJGW14nTUaLImMmNVIM9knyE01M+UTo3Otd
en1nZ1H/sPhNrW+0B/ASHiO79xekzshZ3alFVh2f284L4/vnF2dpQdq4zmwEodg6
GkfphJBbqNmO9DsZUKmj5FFRQSCaYmSvmknK+J4EM8QocDhRYlEYAvduiVu5B7qN
XAAKcdDgy/LM3Uf7S4H8xebixGA5vvkFwaHu1xUawiTgrtNDVoFuId3cnS1rpz2g
uqsbHnRzQIqGgrJWKQ==
-----END CERTIFICATE-----
